target datalayout = "e-m:e-p270:32:32-p271:32:32-p272:64:64-i64:64-i128:128-f80:128-n8:16:32:64-S128"
target triple = "x86_64-pc-linux-gnu"

@full_hash = internal global i32 0, align 4
@hs_full_hash = internal global [32 x i8] c"\F8\C1\9E\8Cw\C08y\BB\C8\EBmV\E0\0D\D5\D8n\F5Y'\EE\FC\08\E1\B0\02\B6\EC\E0]\BF", align 16
@hs_start_hash = internal global [32 x i8] c"\C6\C9\18\AD/A\99\D5Y\8E\AF\01\16\CBz\\,\14\CBTx\12\18\88\8D\B7\03\0D\D5\0D^m", align 16
@.str.1 = private unnamed_addr constant [35 x i8] c"../openssl/test/tls13secretstest.c\00", align 1
@.str.43 = private unnamed_addr constant [19 x i8] c"Failed to get hash\00", align 1
@.str.44 = private unnamed_addr constant [25 x i8] c"Secret generation failed\00", align 1
@.str.45 = private unnamed_addr constant [10 x i8] c"gensecret\00", align 1
@.str.46 = private unnamed_addr constant [11 x i8] c"ref_secret\00", align 1
@.str.47 = private unnamed_addr constant [22 x i8] c"Key generation failed\00", align 1
@.str.48 = private unnamed_addr constant [4 x i8] c"key\00", align 1
@.str.49 = private unnamed_addr constant [8 x i8] c"ref_key\00", align 1
@.str.50 = private unnamed_addr constant [21 x i8] c"IV generation failed\00", align 1
@.str.51 = private unnamed_addr constant [3 x i8] c"iv\00", align 1
@.str.52 = private unnamed_addr constant [7 x i8] c"ref_iv\00", align 1

; Function Attrs: nounwind uwtable
define dso_local i32 @ssl_handshake_hash(ptr noundef %0, ptr noundef %1, i64 noundef %2, ptr noundef %3) #0 {
  %5 = alloca i32, align 4
  %6 = alloca ptr, align 8
  %7 = alloca ptr, align 8
  %8 = alloca i64, align 8
  %9 = alloca ptr, align 8
  store ptr %0, ptr %6, align 8, !tbaa !4
  store ptr %1, ptr %7, align 8, !tbaa !11
  store i64 %2, ptr %8, align 8, !tbaa !13
  store ptr %3, ptr %9, align 8, !tbaa !15
  %10 = load i64, ptr %8, align 8, !tbaa !13
  %11 = icmp ugt i64 32, %10
  br i1 %11, label %12, label %13

12:                                               ; preds = %4
  store i32 0, ptr %5, align 4
  br label %23

13:                                               ; preds = %4
  %14 = load i32, ptr @full_hash, align 4, !tbaa !9
  %15 = icmp ne i32 %14, 0
  br i1 %15, label %16, label %19

16:                                               ; preds = %13
  %17 = load ptr, ptr %7, align 8, !tbaa !11
  call void @llvm.memcpy.p0.p0.i64(ptr align 1 %17, ptr align 16 @hs_full_hash, i64 32, i1 false)
  %18 = load ptr, ptr %9, align 8, !tbaa !15
  store i64 32, ptr %18, align 8, !tbaa !13
  br label %22

19:                                               ; preds = %13
  %20 = load ptr, ptr %7, align 8, !tbaa !11
  call void @llvm.memcpy.p0.p0.i64(ptr align 1 %20, ptr align 16 @hs_start_hash, i64 32, i1 false)
  %21 = load ptr, ptr %9, align 8, !tbaa !15
  store i64 32, ptr %21, align 8, !tbaa !13
  br label %22

22:                                               ; preds = %19, %16
  store i32 1, ptr %5, align 4
  br label %23

23:                                               ; preds = %22, %12
  %24 = load i32, ptr %5, align 4
  ret i32 %24
}

; Function Attrs: nounwind uwtable
define dso_local ptr @ssl_handshake_md(ptr noundef %0) #0 {
  %2 = alloca ptr, align 8
  store ptr %0, ptr %2, align 8, !tbaa !4
  %3 = call ptr @EVP_sha256()
  ret ptr %3
}

; Function Attrs: nounwind uwtable
define internal i32 @test_secret(ptr noundef %0, ptr noundef %1, ptr noundef %2, i64 noundef %3, ptr noundef %4, ptr noundef %5, ptr noundef %6) #0 {
  %8 = alloca i32, align 4
  %9 = alloca ptr, align 8
  %10 = alloca ptr, align 8
  %11 = alloca ptr, align 8
  %12 = alloca i64, align 8
  %13 = alloca ptr, align 8
  %14 = alloca ptr, align 8
  %15 = alloca ptr, align 8
  %16 = alloca i64, align 8
  %17 = alloca [64 x i8], align 16
  %18 = alloca [64 x i8], align 16
  %19 = alloca [16 x i8], align 16
  %20 = alloca [12 x i8], align 1
  %21 = alloca ptr, align 8
  %22 = alloca i32, align 4
  store ptr %0, ptr %9, align 8, !tbaa !4
  store ptr %1, ptr %10, align 8, !tbaa !11
  store ptr %2, ptr %11, align 8, !tbaa !11
  store i64 %3, ptr %12, align 8, !tbaa !13
  store ptr %4, ptr %13, align 8, !tbaa !11
  store ptr %5, ptr %14, align 8, !tbaa !11
  store ptr %6, ptr %15, align 8, !tbaa !11
  call void @llvm.lifetime.start.p0(i64 8, ptr %16) #5
  call void @llvm.lifetime.start.p0(i64 64, ptr %17) #5
  call void @llvm.lifetime.start.p0(i64 64, ptr %18) #5
  call void @llvm.lifetime.start.p0(i64 16, ptr %19) #5
  call void @llvm.lifetime.start.p0(i64 12, ptr %20) #5
  call void @llvm.lifetime.start.p0(i64 8, ptr %21) #5
  %23 = load ptr, ptr %9, align 8, !tbaa !4
  %24 = call ptr @ssl_handshake_md(ptr noundef %23)
  store ptr %24, ptr %21, align 8, !tbaa !33
  %25 = load ptr, ptr %9, align 8, !tbaa !4
  %26 = getelementptr inbounds [64 x i8], ptr %18, i64 0, i64 0
  %27 = call i32 @ssl_handshake_hash(ptr noundef %25, ptr noundef %26, i64 noundef 64, ptr noundef %16)
  %28 = icmp ne i32 %27, 0
  br i1 %28, label %30, label %29

29:                                               ; preds = %7
  call void (ptr, i32, ptr, ...) @test_error(ptr noundef @.str.1, i32 noundef 255, ptr noundef @.str.43)
  store i32 0, ptr %8, align 4
  store i32 1, ptr %22, align 4
  br label %80

30:                                               ; preds = %7
  %31 = load ptr, ptr %9, align 8, !tbaa !4
  %32 = load ptr, ptr %21, align 8, !tbaa !33
  %33 = load ptr, ptr %10, align 8, !tbaa !11
  %34 = load ptr, ptr %11, align 8, !tbaa !11
  %35 = load i64, ptr %12, align 8, !tbaa !13
  %36 = getelementptr inbounds [64 x i8], ptr %18, i64 0, i64 0
  %37 = load i64, ptr %16, align 8, !tbaa !13
  %38 = getelementptr inbounds [64 x i8], ptr %17, i64 0, i64 0
  %39 = load i64, ptr %16, align 8, !tbaa !13
  %40 = call i32 @tls13_hkdf_expand(ptr noundef %31, ptr noundef %32, ptr noundef %33, ptr noundef %34, i64 noundef %35, ptr noundef %36, i64 noundef %37, ptr noundef %38, i64 noundef %39, i32 noundef 1)
  %41 = icmp ne i32 %40, 0
  br i1 %41, label %43, label %42

42:                                               ; preds = %30
  call void (ptr, i32, ptr, ...) @test_error(ptr noundef @.str.1, i32 noundef 261, ptr noundef @.str.44)
  store i32 0, ptr %8, align 4
  store i32 1, ptr %22, align 4
  br label %80

43:                                               ; preds = %30
  %44 = getelementptr inbounds [64 x i8], ptr %17, i64 0, i64 0
  %45 = load i64, ptr %16, align 8, !tbaa !13
  %46 = load ptr, ptr %13, align 8, !tbaa !11
  %47 = load i64, ptr %16, align 8, !tbaa !13
  %48 = call i32 @test_mem_eq(ptr noundef @.str.1, i32 noundef 265, ptr noundef @.str.45, ptr noundef @.str.46, ptr noundef %44, i64 noundef %45, ptr noundef %46, i64 noundef %47)
  %49 = icmp ne i32 %48, 0
  br i1 %49, label %51, label %50

50:                                               ; preds = %43
  store i32 0, ptr %8, align 4
  store i32 1, ptr %22, align 4
  br label %80

51:                                               ; preds = %43
  %52 = load ptr, ptr %9, align 8, !tbaa !4
  %53 = load ptr, ptr %21, align 8, !tbaa !33
  %54 = getelementptr inbounds [64 x i8], ptr %17, i64 0, i64 0
  %55 = getelementptr inbounds [16 x i8], ptr %19, i64 0, i64 0
  %56 = call i32 @tls13_derive_key(ptr noundef %52, ptr noundef %53, ptr noundef %54, ptr noundef %55, i64 noundef 16)
  %57 = icmp ne i32 %56, 0
  br i1 %57, label %59, label %58

58:                                               ; preds = %51
  call void (ptr, i32, ptr, ...) @test_error(ptr noundef @.str.1, i32 noundef 269, ptr noundef @.str.47)
  store i32 0, ptr %8, align 4
  store i32 1, ptr %22, align 4
  br label %80

59:                                               ; preds = %51
  %60 = getelementptr inbounds [16 x i8], ptr %19, i64 0, i64 0
  %61 = load ptr, ptr %14, align 8, !tbaa !11
  %62 = call i32 @test_mem_eq(ptr noundef @.str.1, i32 noundef 273, ptr noundef @.str.48, ptr noundef @.str.49, ptr noundef %60, i64 noundef 16, ptr noundef %61, i64 noundef 16)
  %63 = icmp ne i32 %62, 0
  br i1 %63, label %65, label %64

64:                                               ; preds = %59
  store i32 0, ptr %8, align 4
  store i32 1, ptr %22, align 4
  br label %80

65:                                               ; preds = %59
  %66 = load ptr, ptr %9, align 8, !tbaa !4
  %67 = load ptr, ptr %21, align 8, !tbaa !33
  %68 = getelementptr inbounds [64 x i8], ptr %17, i64 0, i64 0
  %69 = getelementptr inbounds [12 x i8], ptr %20, i64 0, i64 0
  %70 = call i32 @tls13_derive_iv(ptr noundef %66, ptr noundef %67, ptr noundef %68, ptr noundef %69, i64 noundef 12)
  %71 = icmp ne i32 %70, 0
  br i1 %71, label %73, label %72

72:                                               ; preds = %65
  call void (ptr, i32, ptr, ...) @test_error(ptr noundef @.str.1, i32 noundef 277, ptr noundef @.str.50)
  store i32 0, ptr %8, align 4
  store i32 1, ptr %22, align 4
  br label %80

73:                                               ; preds = %65
  %74 = getelementptr inbounds [12 x i8], ptr %20, i64 0, i64 0
  %75 = load ptr, ptr %15, align 8, !tbaa !11
  %76 = call i32 @test_mem_eq(ptr noundef @.str.1, i32 noundef 281, ptr noundef @.str.51, ptr noundef @.str.52, ptr noundef %74, i64 noundef 12, ptr noundef %75, i64 noundef 12)
  %77 = icmp ne i32 %76, 0
  br i1 %77, label %79, label %78

78:                                               ; preds = %73
  store i32 0, ptr %8, align 4
  store i32 1, ptr %22, align 4
  br label %80

79:                                               ; preds = %73
  store i32 1, ptr %8, align 4
  store i32 1, ptr %22, align 4
  br label %80

80:                                               ; preds = %79, %78, %72, %64, %58, %50, %42, %29
  call void @llvm.lifetime.end.p0(i64 8, ptr %21) #5
  call void @llvm.lifetime.end.p0(i64 12, ptr %20) #5
  call void @llvm.lifetime.end.p0(i64 16, ptr %19) #5
  call void @llvm.lifetime.end.p0(i64 64, ptr %18) #5
  call void @llvm.lifetime.end.p0(i64 64, ptr %17) #5
  call void @llvm.lifetime.end.p0(i64 8, ptr %16) #5
  %81 = load i32, ptr %8, align 4
  ret i32 %81
}