; Function Attrs: nounwind uwtable
define internal fastcc range(i32 0, 2) i32 @test_secret(ptr noundef %0, ptr noundef %1, ptr noundef %2, i64 noundef %3, ptr noundef %4, ptr noundef %5, ptr noundef %6) unnamed_addr #3 {
  %8 = alloca [64 x i8], align 16
  %9 = alloca [64 x i8], align 16
  %10 = alloca [16 x i8], align 16
  %11 = alloca [12 x i8], align 1
  call void @llvm.lifetime.start.p0(i64 64, ptr nonnull %8) #6
  call void @llvm.lifetime.start.p0(i64 64, ptr nonnull %9) #6
  call void @llvm.lifetime.start.p0(i64 16, ptr nonnull %10) #6
  call void @llvm.lifetime.start.p0(i64 12, ptr nonnull %11) #6
  %12 = tail call ptr @EVP_sha256() #6
  %.b.i = load i1, ptr @full_hash, align 4
  br i1 %.b.i, label %13, label %14

13:                                               ; preds = %7
  call void @llvm.memcpy.p0.p0.i64(ptr noundef nonnull align 16 dereferenceable(32) %9, ptr noundef nonnull align 16 dereferenceable(32) @hs_full_hash, i64 32, i1 false)
  br label %ssl_handshake_hash.exit

14:                                               ; preds = %7
  call void @llvm.memcpy.p0.p0.i64(ptr noundef nonnull align 16 dereferenceable(32) %9, ptr noundef nonnull align 16 dereferenceable(32) @hs_start_hash, i64 32, i1 false)
  br label %ssl_handshake_hash.exit

ssl_handshake_hash.exit:                          ; preds = %14, %13
  %15 = call i32 @tls13_hkdf_expand(ptr noundef %0, ptr noundef %12, ptr noundef %1, ptr noundef %2, i64 noundef %3, ptr noundef nonnull %9, i64 noundef 32, ptr noundef nonnull %8, i64 noundef 32, i32 noundef 1) #6
  %.not14 = icmp eq i32 %15, 0
  br i1 %.not14, label %16, label %17

16:                                               ; preds = %ssl_handshake_hash.exit
  call void (ptr, i32, ptr, ...) @test_error(ptr noundef nonnull @.str.1, i32 noundef 261, ptr noundef nonnull @.str.44) #6
  br label %29

17:                                               ; preds = %ssl_handshake_hash.exit
  %18 = call i32 @test_mem_eq(ptr noundef nonnull @.str.1, i32 noundef 265, ptr noundef nonnull @.str.45, ptr noundef nonnull @.str.46, ptr noundef nonnull %8, i64 noundef 32, ptr noundef %4, i64 noundef 32) #6
  %.not15 = icmp eq i32 %18, 0
  br i1 %.not15, label %29, label %19

19:                                               ; preds = %17
  %20 = call i32 @tls13_derive_key(ptr noundef %0, ptr noundef %12, ptr noundef nonnull %8, ptr noundef nonnull %10, i64 noundef 16) #6
  %.not16 = icmp eq i32 %20, 0
  br i1 %.not16, label %21, label %22

21:                                               ; preds = %19
  call void (ptr, i32, ptr, ...) @test_error(ptr noundef nonnull @.str.1, i32 noundef 269, ptr noundef nonnull @.str.47) #6
  br label %29

22:                                               ; preds = %19
  %23 = call i32 @test_mem_eq(ptr noundef nonnull @.str.1, i32 noundef 273, ptr noundef nonnull @.str.48, ptr noundef nonnull @.str.49, ptr noundef nonnull %10, i64 noundef 16, ptr noundef %5, i64 noundef 16) #6
  %.not17 = icmp eq i32 %23, 0
  br i1 %.not17, label %29, label %24

24:                                               ; preds = %22
  %25 = call i32 @tls13_derive_iv(ptr noundef %0, ptr noundef %12, ptr noundef nonnull %8, ptr noundef nonnull %11, i64 noundef 12) #6
  %.not18 = icmp eq i32 %25, 0
  br i1 %.not18, label %26, label %27

26:                                               ; preds = %24
  call void (ptr, i32, ptr, ...) @test_error(ptr noundef nonnull @.str.1, i32 noundef 277, ptr noundef nonnull @.str.50) #6
  br label %29

27:                                               ; preds = %24
  %28 = call i32 @test_mem_eq(ptr noundef nonnull @.str.1, i32 noundef 281, ptr noundef nonnull @.str.51, ptr noundef nonnull @.str.52, ptr noundef nonnull %11, i64 noundef 12, ptr noundef %6, i64 noundef 12) #6
  %.not19 = icmp ne i32 %28, 0
  %. = zext i1 %.not19 to i32
  br label %29

29:                                               ; preds = %27, %22, %17, %26, %21, %16
  %.0 = phi i32 [ 0, %26 ], [ 0, %21 ], [ 0, %16 ], [ 0, %17 ], [ 0, %22 ], [ %., %27 ]
  call void @llvm.lifetime.end.p0(i64 12, ptr nonnull %11) #6
  call void @llvm.lifetime.end.p0(i64 16, ptr nonnull %10) #6
  call void @llvm.lifetime.end.p0(i64 64, ptr nonnull %9) #6
  call void @llvm.lifetime.end.p0(i64 64, ptr nonnull %8) #6
  ret i32 %.0
}